target datalayout = "e-m:e-p270:32:32-p271:32:32-p272:64:64-i64:64-i128:128-f80:128-n8:16:32:64-S128"
target triple = "x86_64-unknown-linux-gnu"

%"struct.node::OnScopeLeaveImpl" = type { %class.anon, i8, [7 x i8] }
%class.anon = type <{ ptr, i8, [7 x i8] }>
%struct.napi_env__ = type <{ ptr, ptr, %"class.v8::Global", %"class.v8::Global.0", %"class.v8impl::RefTracker", %"class.v8impl::RefTracker", %"class.std::unordered_set", %struct.napi_extended_error_info, i32, i32, i32, [4 x i8], ptr, i32, i8, [3 x i8] }>
%"class.v8::Global" = type { %"class.v8::PersistentBase" }
%"class.v8::PersistentBase" = type { %"class.v8::IndirectHandleBase" }
%"class.v8::IndirectHandleBase" = type { ptr }
%"class.v8::Global.0" = type { %"class.v8::PersistentBase.1" }
%"class.v8::PersistentBase.1" = type { %"class.v8::IndirectHandleBase" }
%"class.v8impl::RefTracker" = type { ptr, ptr, ptr }
%"class.std::unordered_set" = type { %"class.std::_Hashtable" }
%"class.std::_Hashtable" = type { ptr, i64, %"struct.std::__detail::_Hash_node_base", i64, %"struct.std::__detail::_Prime_rehash_policy", ptr }
%"struct.std::__detail::_Hash_node_base" = type { ptr }
%"struct.std::__detail::_Prime_rehash_policy" = type { float, i64 }
%struct.napi_extended_error_info = type { ptr, ptr, i32, i32 }
%"class.v8impl::Finalizer" = type { ptr, ptr, ptr, ptr, ptr }
%"class.v8impl::RefBase" = type { %"class.v8impl::TrackedFinalizer", i32, i32 }
%"class.v8impl::TrackedFinalizer" = type { %"class.v8impl::Finalizer", %"class.v8impl::RefTracker" }
%"class.v8impl::Reference" = type <{ %"class.v8impl::RefBase", %"class.v8::Global.0", i8, [7 x i8] }>
%"class.v8::WeakCallbackInfo" = type { ptr, ptr, ptr, [2 x ptr] }

; Function Attrs: mustprogress nounwind uwtable
define internal void @"_ZZN10napi_env__21InvokeFinalizerFromGCEPN6v8impl10RefTrackerEENK3$_0clEv"(ptr noundef nonnull align 8 dereferenceable(9) %this) #4 align 2 {
entry:
  %this.addr = alloca ptr, align 8
  store ptr %this, ptr %this.addr, align 8
  %this1 = load ptr, ptr %this.addr, align 8
  %0 = getelementptr inbounds %class.anon, ptr %this1, i32 0, i32 0
  %1 = load ptr, ptr %0, align 8
  %2 = getelementptr inbounds %class.anon, ptr %this1, i32 0, i32 1
  %3 = load i8, ptr %2, align 8
  %tobool = trunc i8 %3 to i1
  %in_gc_finalizer = getelementptr inbounds %struct.napi_env__, ptr %1, i32 0, i32 14
  %frombool = zext i1 %tobool to i8
  store i8 %frombool, ptr %in_gc_finalizer, align 4
  ret void
}

; Function Attrs: mustprogress nounwind uwtable
define internal void @"_ZN4node16OnScopeLeaveImplIZN10napi_env__21InvokeFinalizerFromGCEPN6v8impl10RefTrackerEE3$_0EC2EOS5_"(ptr noundef nonnull align 8 dereferenceable(17) %this, ptr noundef nonnull align 8 dereferenceable(9) %fn) unnamed_addr #4 align 2 {
entry:
  %this.addr = alloca ptr, align 8
  %fn.addr = alloca ptr, align 8
  store ptr %this, ptr %this.addr, align 8
  store ptr %fn, ptr %fn.addr, align 8
  %this1 = load ptr, ptr %this.addr, align 8
  %fn_ = getelementptr inbounds %"struct.node::OnScopeLeaveImpl", ptr %this1, i32 0, i32 0
  %0 = load ptr, ptr %fn.addr, align 8
  call void @llvm.memcpy.p0.p0.i64(ptr align 8 %fn_, ptr align 8 %0, i64 16, i1 false)
  %active_ = getelementptr inbounds %"struct.node::OnScopeLeaveImpl", ptr %this1, i32 0, i32 1
  store i8 1, ptr %active_, align 8
  ret void
}

; Function Attrs: mustprogress nounwind uwtable
define internal void @"_ZN4node16OnScopeLeaveImplIZN10napi_env__21InvokeFinalizerFromGCEPN6v8impl10RefTrackerEE3$_0ED2Ev"(ptr noundef nonnull align 8 dereferenceable(17) %this) unnamed_addr #4 align 2 {
entry:
  %this.addr = alloca ptr, align 8
  store ptr %this, ptr %this.addr, align 8
  %this1 = load ptr, ptr %this.addr, align 8
  %active_ = getelementptr inbounds %"struct.node::OnScopeLeaveImpl", ptr %this1, i32 0, i32 1
  %0 = load i8, ptr %active_, align 8
  %tobool = trunc i8 %0 to i1
  br i1 %tobool, label %if.then, label %if.end

if.then:                                          ; preds = %entry
  %fn_ = getelementptr inbounds %"struct.node::OnScopeLeaveImpl", ptr %this1, i32 0, i32 0
  call void @"_ZZN10napi_env__21InvokeFinalizerFromGCEPN6v8impl10RefTrackerEENK3$_0clEv"(ptr noundef nonnull align 8 dereferenceable(9) %fn_)
  br label %if.end

if.end:                                           ; preds = %if.then, %entry
  ret void
}

; Function Attrs: mustprogress nounwind uwtable
define internal void @"_ZN4node12OnScopeLeaveIZN10napi_env__21InvokeFinalizerFromGCEPN6v8impl10RefTrackerEE3$_0EENS_16OnScopeLeaveImplIT_EEOS7_"(ptr noalias sret(%"struct.node::OnScopeLeaveImpl") align 8 %agg.result, ptr noundef nonnull align 8 dereferenceable(9) %fn) #4 {
entry:
  %result.ptr = alloca ptr, align 8
  %fn.addr = alloca ptr, align 8
  store ptr %agg.result, ptr %result.ptr, align 8
  store ptr %fn, ptr %fn.addr, align 8
  %0 = load ptr, ptr %fn.addr, align 8
  call void @"_ZN4node16OnScopeLeaveImplIZN10napi_env__21InvokeFinalizerFromGCEPN6v8impl10RefTrackerEE3$_0EC2EOS5_"(ptr noundef nonnull align 8 dereferenceable(17) %agg.result, ptr noundef nonnull align 8 dereferenceable(9) %0)
  ret void
}

; Function Attrs: mustprogress nounwind uwtable
define dso_local void @_ZN10napi_env__21InvokeFinalizerFromGCEPN6v8impl10RefTrackerE(ptr noundef nonnull align 8 dereferenceable(189) %this, ptr noundef %finalizer) #4 align 2 {
entry:
  %this.addr = alloca ptr, align 8
  %finalizer.addr = alloca ptr, align 8
  %restore_state = alloca %"struct.node::OnScopeLeaveImpl", align 8
  %ref.tmp = alloca %class.anon, align 8
  store ptr %this, ptr %this.addr, align 8
  store ptr %finalizer, ptr %finalizer.addr, align 8
  %this1 = load ptr, ptr %this.addr, align 8
  %module_api_version = getelementptr inbounds %struct.napi_env__, ptr %this1, i32 0, i32 13
  %0 = load i32, ptr %module_api_version, align 8
  %cmp = icmp ne i32 %0, 2147483647
  br i1 %cmp, label %if.then, label %if.else

if.then:                                          ; preds = %entry
  %1 = load ptr, ptr %finalizer.addr, align 8
  %vtable = load ptr, ptr %this1, align 8
  %vfn = getelementptr inbounds ptr, ptr %vtable, i64 2
  %2 = load ptr, ptr %vfn, align 8
  call void %2(ptr noundef nonnull align 8 dereferenceable(189) %this1, ptr noundef %1)
  br label %if.end

if.else:                                          ; preds = %entry
  %3 = getelementptr inbounds %class.anon, ptr %ref.tmp, i32 0, i32 0
  store ptr %this1, ptr %3, align 8
  %4 = getelementptr inbounds %class.anon, ptr %ref.tmp, i32 0, i32 1
  %in_gc_finalizer = getelementptr inbounds %struct.napi_env__, ptr %this1, i32 0, i32 14
  %5 = load i8, ptr %in_gc_finalizer, align 4
  %tobool = trunc i8 %5 to i1
  %frombool = zext i1 %tobool to i8
  store i8 %frombool, ptr %4, align 8
  call void @"_ZN4node12OnScopeLeaveIZN10napi_env__21InvokeFinalizerFromGCEPN6v8impl10RefTrackerEE3$_0EENS_16OnScopeLeaveImplIT_EEOS7_"(ptr sret(%"struct.node::OnScopeLeaveImpl") align 8 %restore_state, ptr noundef nonnull align 8 dereferenceable(9) %ref.tmp)
  %in_gc_finalizer2 = getelementptr inbounds %struct.napi_env__, ptr %this1, i32 0, i32 14
  store i8 1, ptr %in_gc_finalizer2, align 4
  %6 = load ptr, ptr %finalizer.addr, align 8
  %vtable3 = load ptr, ptr %6, align 8
  %vfn4 = getelementptr inbounds ptr, ptr %vtable3, i64 2
  %7 = load ptr, ptr %vfn4, align 8
  call void %7(ptr noundef nonnull align 8 dereferenceable(24) %6)
  call void @"_ZN4node16OnScopeLeaveImplIZN10napi_env__21InvokeFinalizerFromGCEPN6v8impl10RefTrackerEE3$_0ED2Ev"(ptr noundef nonnull align 8 dereferenceable(17) %restore_state) #3
  br label %if.end

if.end:                                           ; preds = %if.else, %if.then
  ret void
}

; Function Attrs: mustprogress nounwind uwtable
define dso_local void @_ZN6v8impl9Reference12WeakCallbackERKN2v816WeakCallbackInfoIS0_EE(ptr noundef nonnull align 8 dereferenceable(40) %data) #4 align 2 {
entry:
  %this.addr.i7 = alloca ptr, align 8
  %this.addr.i5 = alloca ptr, align 8
  %this.addr.i3 = alloca ptr, align 8
  %this.addr.i1 = alloca ptr, align 8
  %this.addr.i = alloca ptr, align 8
  %data.addr = alloca ptr, align 8
  %reference = alloca ptr, align 8
  store ptr %data, ptr %data.addr, align 8
  %0 = load ptr, ptr %data.addr, align 8
  store ptr %0, ptr %this.addr.i3, align 8
  %this1.i4 = load ptr, ptr %this.addr.i3, align 8
  %parameter_.i = getelementptr inbounds %"class.v8::WeakCallbackInfo", ptr %this1.i4, i32 0, i32 1
  %1 = load ptr, ptr %parameter_.i, align 8
  store ptr %1, ptr %reference, align 8
  %2 = load ptr, ptr %reference, align 8
  %persistent_ = getelementptr inbounds %"class.v8impl::Reference", ptr %2, i32 0, i32 1
  store ptr %persistent_, ptr %this.addr.i, align 8
  %this1.i = load ptr, ptr %this.addr.i, align 8
  store ptr %this1.i, ptr %this.addr.i1, align 8
  %this1.i2 = load ptr, ptr %this.addr.i1, align 8
  %3 = load ptr, ptr %this1.i2, align 8
  %cmp.i = icmp eq ptr %3, null
  br i1 %cmp.i, label %if.then.i, label %if.end.i

if.then.i:                                        ; preds = %entry
  br label %_ZN2v814PersistentBaseINS_5ValueEE5ResetEv.exit

if.end.i:                                         ; preds = %entry
  store ptr %this1.i, ptr %this.addr.i5, align 8
  %this1.i6 = load ptr, ptr %this.addr.i5, align 8
  %4 = load ptr, ptr %this1.i6, align 8
  call void @_ZN2v812api_internal13DisposeGlobalEPm(ptr noundef %4) #3
  store ptr %this1.i, ptr %this.addr.i7, align 8
  %this1.i8 = load ptr, ptr %this.addr.i7, align 8
  store ptr null, ptr %this1.i8, align 8
  br label %_ZN2v814PersistentBaseINS_5ValueEE5ResetEv.exit

_ZN2v814PersistentBaseINS_5ValueEE5ResetEv.exit:  ; preds = %if.end.i, %if.then.i
  %5 = load ptr, ptr %reference, align 8
  %env_ = getelementptr inbounds %"class.v8impl::Finalizer", ptr %5, i32 0, i32 1
  %6 = load ptr, ptr %env_, align 8
  %7 = load ptr, ptr %reference, align 8
  %8 = icmp eq ptr %7, null
  br i1 %8, label %cast.end, label %cast.notnull

cast.notnull:                                     ; preds = %_ZN2v814PersistentBaseINS_5ValueEE5ResetEv.exit
  %add.ptr = getelementptr inbounds i8, ptr %7, i64 40
  br label %cast.end

cast.end:                                         ; preds = %cast.notnull, %_ZN2v814PersistentBaseINS_5ValueEE5ResetEv.exit
  %cast.result = phi ptr [ %add.ptr, %cast.notnull ], [ null, %_ZN2v814PersistentBaseINS_5ValueEE5ResetEv.exit ]
  call void @_ZN10napi_env__21InvokeFinalizerFromGCEPN6v8impl10RefTrackerE(ptr noundef nonnull align 8 dereferenceable(189) %6, ptr noundef %cast.result)
  ret void
}