; Function Attrs: mustprogress nounwind uwtable
define dso_local void @_ZN6v8impl9Reference12WeakCallbackERKN2v816WeakCallbackInfoIS0_EE(ptr nocapture noundef nonnull readonly align 8 dereferenceable(40) %data) #3 align 2 {
entry:
  %parameter_.i = getelementptr inbounds i8, ptr %data, i64 8
  %0 = load ptr, ptr %parameter_.i, align 8
  %persistent_ = getelementptr inbounds i8, ptr %0, i64 72
  %1 = load ptr, ptr %persistent_, align 8
  %cmp.i = icmp eq ptr %1, null
  br i1 %cmp.i, label %_ZN2v814PersistentBaseINS_5ValueEE5ResetEv.exit, label %if.end.i

if.end.i:                                         ; preds = %entry
  tail call void @_ZN2v812api_internal13DisposeGlobalEPm(ptr noundef nonnull %1) #24
  store ptr null, ptr %persistent_, align 8
  br label %_ZN2v814PersistentBaseINS_5ValueEE5ResetEv.exit

_ZN2v814PersistentBaseINS_5ValueEE5ResetEv.exit:  ; preds = %entry, %if.end.i
  %env_ = getelementptr inbounds i8, ptr %0, i64 8
  %2 = load ptr, ptr %env_, align 8
  %add.ptr = getelementptr inbounds i8, ptr %0, i64 40
  %module_api_version.i = getelementptr inbounds i8, ptr %2, i64 184
  %3 = load i32, ptr %module_api_version.i, align 8
  %cmp.not.i = icmp eq i32 %3, 2147483647
  br i1 %cmp.not.i, label %"_ZN4node16OnScopeLeaveImplIZN10napi_env__21InvokeFinalizerFromGCEPN6v8impl10RefTrackerEE3$_0ED2Ev.exit.i", label %if.then.i

if.then.i:                                        ; preds = %_ZN2v814PersistentBaseINS_5ValueEE5ResetEv.exit
  %vtable.i = load ptr, ptr %2, align 8
  %vfn.i = getelementptr inbounds i8, ptr %vtable.i, i64 16
  %4 = load ptr, ptr %vfn.i, align 8
  tail call void %4(ptr noundef nonnull align 8 dereferenceable(189) %2, ptr noundef nonnull %add.ptr) #24
  br label %_ZN10napi_env__21InvokeFinalizerFromGCEPN6v8impl10RefTrackerE.exit

"_ZN4node16OnScopeLeaveImplIZN10napi_env__21InvokeFinalizerFromGCEPN6v8impl10RefTrackerEE3$_0ED2Ev.exit.i": ; preds = %_ZN2v814PersistentBaseINS_5ValueEE5ResetEv.exit
  %in_gc_finalizer.i = getelementptr inbounds i8, ptr %2, i64 188
  %5 = load i8, ptr %in_gc_finalizer.i, align 4
  %6 = and i8 %5, 1
  store i8 1, ptr %in_gc_finalizer.i, align 4
  %vtable3.i = load ptr, ptr %add.ptr, align 8
  %vfn4.i = getelementptr inbounds i8, ptr %vtable3.i, i64 16
  %7 = load ptr, ptr %vfn4.i, align 8
  tail call void %7(ptr noundef nonnull align 8 dereferenceable(24) %add.ptr) #24
  store i8 %6, ptr %in_gc_finalizer.i, align 4
  br label %_ZN10napi_env__21InvokeFinalizerFromGCEPN6v8impl10RefTrackerE.exit

_ZN10napi_env__21InvokeFinalizerFromGCEPN6v8impl10RefTrackerE.exit: ; preds = %if.then.i, %"_ZN4node16OnScopeLeaveImplIZN10napi_env__21InvokeFinalizerFromGCEPN6v8impl10RefTrackerEE3$_0ED2Ev.exit.i"
  ret void
}